target datalayout = "e-m:e-p270:32:32-p271:32:32-p272:64:64-i64:64-i128:128-f80:128-n8:16:32:64-S128"
target triple = "x86_64-unknown-linux-gnu"

%"class.ClipperLib::PolyNode" = type { ptr, %"class.std::vector", %"class.std::vector.0", ptr, i32, i8, i32, i32 }
%"class.std::vector" = type { %"struct.std::_Vector_base" }
%"struct.std::_Vector_base" = type { %"struct.std::_Vector_base<ClipperLib::IntPoint, std::allocator<ClipperLib::IntPoint>>::_Vector_impl" }
%"struct.std::_Vector_base<ClipperLib::IntPoint, std::allocator<ClipperLib::IntPoint>>::_Vector_impl" = type { %"struct.std::_Vector_base<ClipperLib::IntPoint, std::allocator<ClipperLib::IntPoint>>::_Vector_impl_data" }
%"struct.std::_Vector_base<ClipperLib::IntPoint, std::allocator<ClipperLib::IntPoint>>::_Vector_impl_data" = type { ptr, ptr, ptr }
%"class.std::vector.0" = type { %"struct.std::_Vector_base.1" }
%"struct.std::_Vector_base.1" = type { %"struct.std::_Vector_base<ClipperLib::PolyNode *, std::allocator<ClipperLib::PolyNode *>>::_Vector_impl" }
%"struct.std::_Vector_base<ClipperLib::PolyNode *, std::allocator<ClipperLib::PolyNode *>>::_Vector_impl" = type { %"struct.std::_Vector_base<ClipperLib::PolyNode *, std::allocator<ClipperLib::PolyNode *>>::_Vector_impl_data" }
%"struct.std::_Vector_base<ClipperLib::PolyNode *, std::allocator<ClipperLib::PolyNode *>>::_Vector_impl_data" = type { ptr, ptr, ptr }

; Function Attrs: mustprogress nounwind uwtable
define linkonce_odr hidden noundef nonnull align 8 dereferenceable(8) ptr @_ZNSt6vectorIPN10ClipperLib8PolyNodeESaIS2_EEixEm(ptr noundef nonnull align 8 dereferenceable(24) %this, i64 noundef %__n) #1 comdat align 2 {
entry:
  %this.addr = alloca ptr, align 8
  %__n.addr = alloca i64, align 8
  store ptr %this, ptr %this.addr, align 8
  store i64 %__n, ptr %__n.addr, align 8
  %this1 = load ptr, ptr %this.addr, align 8
  %_M_impl = getelementptr inbounds %"struct.std::_Vector_base.1", ptr %this1, i32 0, i32 0
  %_M_start = getelementptr inbounds %"struct.std::_Vector_base<ClipperLib::PolyNode *, std::allocator<ClipperLib::PolyNode *>>::_Vector_impl_data", ptr %_M_impl, i32 0, i32 0
  %0 = load ptr, ptr %_M_start, align 8
  %1 = load i64, ptr %__n.addr, align 8
  %add.ptr = getelementptr inbounds ptr, ptr %0, i64 %1
  ret ptr %add.ptr
}

; Function Attrs: mustprogress nounwind uwtable
define linkonce_odr hidden noundef i64 @_ZNKSt6vectorIPN10ClipperLib8PolyNodeESaIS2_EE4sizeEv(ptr noundef nonnull align 8 dereferenceable(24) %this) #1 comdat align 2 {
entry:
  %this.addr = alloca ptr, align 8
  store ptr %this, ptr %this.addr, align 8
  %this1 = load ptr, ptr %this.addr, align 8
  %_M_impl = getelementptr inbounds %"struct.std::_Vector_base.1", ptr %this1, i32 0, i32 0
  %_M_finish = getelementptr inbounds %"struct.std::_Vector_base<ClipperLib::PolyNode *, std::allocator<ClipperLib::PolyNode *>>::_Vector_impl_data", ptr %_M_impl, i32 0, i32 1
  %0 = load ptr, ptr %_M_finish, align 8
  %_M_impl2 = getelementptr inbounds %"struct.std::_Vector_base.1", ptr %this1, i32 0, i32 0
  %_M_start = getelementptr inbounds %"struct.std::_Vector_base<ClipperLib::PolyNode *, std::allocator<ClipperLib::PolyNode *>>::_Vector_impl_data", ptr %_M_impl2, i32 0, i32 0
  %1 = load ptr, ptr %_M_start, align 8
  %sub.ptr.lhs.cast = ptrtoint ptr %0 to i64
  %sub.ptr.rhs.cast = ptrtoint ptr %1 to i64
  %sub.ptr.sub = sub i64 %sub.ptr.lhs.cast, %sub.ptr.rhs.cast
  %sub.ptr.div = sdiv exact i64 %sub.ptr.sub, 8
  ret i64 %sub.ptr.div
}

; Function Attrs: mustprogress uwtable
define hidden noundef ptr @_ZNK10ClipperLib8PolyNode16GetNextSiblingUpEv(ptr noundef nonnull align 8 dereferenceable(80) %this) #0 align 2 {
entry:
  %retval = alloca ptr, align 8
  %this.addr = alloca ptr, align 8
  store ptr %this, ptr %this.addr, align 8
  %this1 = load ptr, ptr %this.addr, align 8
  %Parent = getelementptr inbounds %"class.ClipperLib::PolyNode", ptr %this1, i32 0, i32 3
  %0 = load ptr, ptr %Parent, align 8
  %tobool = icmp ne ptr %0, null
  br i1 %tobool, label %if.else, label %if.then

if.then:                                          ; preds = %entry
  store ptr null, ptr %retval, align 8
  br label %return

if.else:                                          ; preds = %entry
  %Index = getelementptr inbounds %"class.ClipperLib::PolyNode", ptr %this1, i32 0, i32 4
  %1 = load i32, ptr %Index, align 8
  %conv = zext i32 %1 to i64
  %Parent2 = getelementptr inbounds %"class.ClipperLib::PolyNode", ptr %this1, i32 0, i32 3
  %2 = load ptr, ptr %Parent2, align 8
  %Childs = getelementptr inbounds %"class.ClipperLib::PolyNode", ptr %2, i32 0, i32 2
  %call = call noundef i64 @_ZNKSt6vectorIPN10ClipperLib8PolyNodeESaIS2_EE4sizeEv(ptr noundef nonnull align 8 dereferenceable(24) %Childs) #13
  %sub = sub i64 %call, 1
  %cmp = icmp eq i64 %conv, %sub
  br i1 %cmp, label %if.then3, label %if.else6

if.then3:                                         ; preds = %if.else
  %Parent4 = getelementptr inbounds %"class.ClipperLib::PolyNode", ptr %this1, i32 0, i32 3
  %3 = load ptr, ptr %Parent4, align 8
  %call5 = call noundef ptr @_ZNK10ClipperLib8PolyNode16GetNextSiblingUpEv(ptr noundef nonnull align 8 dereferenceable(80) %3)
  store ptr %call5, ptr %retval, align 8
  br label %return

if.else6:                                         ; preds = %if.else
  %Parent7 = getelementptr inbounds %"class.ClipperLib::PolyNode", ptr %this1, i32 0, i32 3
  %4 = load ptr, ptr %Parent7, align 8
  %Childs8 = getelementptr inbounds %"class.ClipperLib::PolyNode", ptr %4, i32 0, i32 2
  %Index9 = getelementptr inbounds %"class.ClipperLib::PolyNode", ptr %this1, i32 0, i32 4
  %5 = load i32, ptr %Index9, align 8
  %add = add i32 %5, 1
  %conv10 = zext i32 %add to i64
  %call11 = call noundef nonnull align 8 dereferenceable(8) ptr @_ZNSt6vectorIPN10ClipperLib8PolyNodeESaIS2_EEixEm(ptr noundef nonnull align 8 dereferenceable(24) %Childs8, i64 noundef %conv10) #13
  %6 = load ptr, ptr %call11, align 8
  store ptr %6, ptr %retval, align 8
  br label %return

return:                                           ; preds = %if.else6, %if.then3, %if.then
  %7 = load ptr, ptr %retval, align 8
  ret ptr %7
}