; Function Attrs: mustprogress nofree norecurse nosync nounwind willreturn memory(read, inaccessiblemem: none) uwtable
define hidden noundef ptr @_ZNK10ClipperLib8PolyNode16GetNextSiblingUpEv(ptr nocapture noundef nonnull readonly align 8 dereferenceable(80) %this) local_unnamed_addr #1 align 2 {
entry:
  br label %tailrecurse

tailrecurse:                                      ; preds = %if.else, %entry
  %this.tr = phi ptr [ %this, %entry ], [ %0, %if.else ]
  %Parent = getelementptr inbounds i8, ptr %this.tr, i64 56
  %0 = load ptr, ptr %Parent, align 8
  %tobool.not = icmp eq ptr %0, null
  br i1 %tobool.not, label %return, label %if.else

if.else:                                          ; preds = %tailrecurse
  %Index = getelementptr inbounds i8, ptr %this.tr, i64 64
  %1 = load i32, ptr %Index, align 8
  %conv = zext i32 %1 to i64
  %Childs = getelementptr inbounds i8, ptr %0, i64 32
  %_M_finish.i = getelementptr inbounds i8, ptr %0, i64 40
  %2 = load ptr, ptr %_M_finish.i, align 8
  %3 = load ptr, ptr %Childs, align 8
  %sub.ptr.lhs.cast.i = ptrtoint ptr %2 to i64
  %sub.ptr.rhs.cast.i = ptrtoint ptr %3 to i64
  %sub.ptr.sub.i = sub i64 %sub.ptr.lhs.cast.i, %sub.ptr.rhs.cast.i
  %sub.ptr.div.i = ashr exact i64 %sub.ptr.sub.i, 3
  %sub = add nsw i64 %sub.ptr.div.i, -1
  %cmp = icmp eq i64 %sub, %conv
  br i1 %cmp, label %tailrecurse, label %if.else6

if.else6:                                         ; preds = %if.else
  %add = add i32 %1, 1
  %conv10 = zext i32 %add to i64
  %add.ptr.i = getelementptr inbounds ptr, ptr %3, i64 %conv10
  %4 = load ptr, ptr %add.ptr.i, align 8
  br label %return

return:                                           ; preds = %tailrecurse, %if.else6
  %retval.0 = phi ptr [ %4, %if.else6 ], [ null, %tailrecurse ]
  ret ptr %retval.0
}